(lp0
S'poi'
p1
aS'salary'
p2
aS'bonus'
p3
aS'total_payments'
p4
aS'exercised_stock_options'
p5
aS'director_fees'
p6
aS'ratio_exso_totalp'
p7
aS'to2from_poi_to_this_person'
p8
aS'from2from_this_person_to_poi'
p9
a.